target datalayout = "e-m:e-p270:32:32-p271:32:32-p272:64:64-i64:64-i128:128-f80:128-n8:16:32:64-S128"
target triple = "x86_64-pc-linux-gnu"

%struct.opj_mutex_t = type { %union.pthread_mutex_t }
%union.pthread_mutex_t = type { %struct.__pthread_mutex_s }
%struct.__pthread_mutex_s = type { i32, i32, i32, i32, i32, i16, i16, %struct.__pthread_internal_list }
%struct.__pthread_internal_list = type { ptr, ptr }
%struct.opj_cond_t = type { %union.pthread_cond_t }
%union.pthread_cond_t = type { %struct.__pthread_cond_s }
%struct.__pthread_cond_s = type { %union.__atomic_wide_counter, %union.__atomic_wide_counter, [2 x i32], [2 x i32], i32, i32, [2 x i32] }
%union.__atomic_wide_counter = type { i64 }
%struct.opj_thread_pool_t = type { ptr, i32, ptr, ptr, i32, ptr, i32, ptr, i32, ptr, i32 }
%struct.opj_worker_thread_t = type { ptr, ptr, i32, ptr, ptr }
%struct.opj_worker_thread_list_t = type { ptr, ptr }
%struct.opj_worker_thread_job_t = type { ptr, ptr }
%struct.opj_job_list_t = type { ptr, ptr }

; Function Attrs: nounwind uwtable
define hidden void @opj_cond_signal(ptr noundef %0) #0 {
  %2 = alloca ptr, align 8
  %3 = alloca i32, align 4
  store ptr %0, ptr %2, align 8, !tbaa !8
  call void @llvm.lifetime.start.p0(i64 4, ptr %3) #4
  %4 = load ptr, ptr %2, align 8, !tbaa !8
  %5 = getelementptr inbounds nuw %struct.opj_cond_t, ptr %4, i32 0, i32 0
  %6 = call i32 @pthread_cond_signal(ptr noundef %5) #4
  store i32 %6, ptr %3, align 4, !tbaa !10
  call void @llvm.lifetime.end.p0(i64 4, ptr %3) #4
  ret void
}

; Function Attrs: nounwind uwtable
define hidden void @opj_mutex_unlock(ptr noundef %0) #0 {
  %2 = alloca ptr, align 8
  store ptr %0, ptr %2, align 8, !tbaa !3
  %3 = load ptr, ptr %2, align 8, !tbaa !3
  %4 = getelementptr inbounds nuw %struct.opj_mutex_t, ptr %3, i32 0, i32 0
  %5 = call i32 @pthread_mutex_unlock(ptr noundef %4) #4
  ret void
}

; Function Attrs: nounwind uwtable
define hidden void @opj_cond_wait(ptr noundef %0, ptr noundef %1) #0 {
  %3 = alloca ptr, align 8
  %4 = alloca ptr, align 8
  store ptr %0, ptr %3, align 8, !tbaa !8
  store ptr %1, ptr %4, align 8, !tbaa !3
  %5 = load ptr, ptr %3, align 8, !tbaa !8
  %6 = getelementptr inbounds nuw %struct.opj_cond_t, ptr %5, i32 0, i32 0
  %7 = load ptr, ptr %4, align 8, !tbaa !3
  %8 = getelementptr inbounds nuw %struct.opj_mutex_t, ptr %7, i32 0, i32 0
  %9 = call i32 @pthread_cond_wait(ptr noundef %6, ptr noundef %8)
  ret void
}

; Function Attrs: nounwind uwtable
define hidden void @opj_mutex_lock(ptr noundef %0) #0 {
  %2 = alloca ptr, align 8
  store ptr %0, ptr %2, align 8, !tbaa !3
  %3 = load ptr, ptr %2, align 8, !tbaa !3
  %4 = getelementptr inbounds nuw %struct.opj_mutex_t, ptr %3, i32 0, i32 0
  %5 = call i32 @pthread_mutex_lock(ptr noundef %4) #4
  ret void
}

; Function Attrs: nounwind uwtable
define hidden i32 @opj_thread_pool_submit_job(ptr noundef %0, ptr noundef %1, ptr noundef %2) #0 {
  %4 = alloca i32, align 4
  %5 = alloca ptr, align 8
  %6 = alloca ptr, align 8
  %7 = alloca ptr, align 8
  %8 = alloca ptr, align 8
  %9 = alloca ptr, align 8
  %10 = alloca i32, align 4
  %11 = alloca ptr, align 8
  %12 = alloca ptr, align 8
  %13 = alloca ptr, align 8
  store ptr %0, ptr %5, align 8, !tbaa !32
  store ptr %1, ptr %6, align 8, !tbaa !12
  store ptr %2, ptr %7, align 8, !tbaa !12
  call void @llvm.lifetime.start.p0(i64 8, ptr %8) #4
  call void @llvm.lifetime.start.p0(i64 8, ptr %9) #4
  %14 = load ptr, ptr %5, align 8, !tbaa !32
  %15 = getelementptr inbounds nuw %struct.opj_thread_pool_t, ptr %14, i32 0, i32 3
  %16 = load ptr, ptr %15, align 8, !tbaa !39
  %17 = icmp eq ptr %16, null
  br i1 %17, label %18, label %24

18:                                               ; preds = %3
  %19 = load ptr, ptr %6, align 8, !tbaa !12
  %20 = load ptr, ptr %7, align 8, !tbaa !12
  %21 = load ptr, ptr %5, align 8, !tbaa !32
  %22 = getelementptr inbounds nuw %struct.opj_thread_pool_t, ptr %21, i32 0, i32 9
  %23 = load ptr, ptr %22, align 8, !tbaa !38
  call void %19(ptr noundef %20, ptr noundef %23)
  store i32 1, ptr %4, align 4
  store i32 1, ptr %10, align 4
  br label %127

24:                                               ; preds = %3
  %25 = call ptr @opj_malloc(i64 noundef 16)
  store ptr %25, ptr %8, align 8, !tbaa !12
  %26 = load ptr, ptr %8, align 8, !tbaa !12
  %27 = icmp eq ptr %26, null
  br i1 %27, label %28, label %29

28:                                               ; preds = %24
  store i32 0, ptr %4, align 4
  store i32 1, ptr %10, align 4
  br label %127

29:                                               ; preds = %24
  %30 = load ptr, ptr %6, align 8, !tbaa !12
  %31 = load ptr, ptr %8, align 8, !tbaa !12
  %32 = getelementptr inbounds nuw %struct.opj_worker_thread_job_t, ptr %31, i32 0, i32 0
  store ptr %30, ptr %32, align 8, !tbaa !58
  %33 = load ptr, ptr %7, align 8, !tbaa !12
  %34 = load ptr, ptr %8, align 8, !tbaa !12
  %35 = getelementptr inbounds nuw %struct.opj_worker_thread_job_t, ptr %34, i32 0, i32 1
  store ptr %33, ptr %35, align 8, !tbaa !60
  %36 = call ptr @opj_malloc(i64 noundef 16)
  store ptr %36, ptr %9, align 8, !tbaa !61
  %37 = load ptr, ptr %9, align 8, !tbaa !61
  %38 = icmp eq ptr %37, null
  br i1 %38, label %39, label %41

39:                                               ; preds = %29
  %40 = load ptr, ptr %8, align 8, !tbaa !12
  call void @opj_free(ptr noundef %40)
  store i32 0, ptr %4, align 4
  store i32 1, ptr %10, align 4
  br label %127

41:                                               ; preds = %29
  %42 = load ptr, ptr %8, align 8, !tbaa !12
  %43 = load ptr, ptr %9, align 8, !tbaa !61
  %44 = getelementptr inbounds nuw %struct.opj_job_list_t, ptr %43, i32 0, i32 0
  store ptr %42, ptr %44, align 8, !tbaa !62
  %45 = load ptr, ptr %5, align 8, !tbaa !32
  %46 = getelementptr inbounds nuw %struct.opj_thread_pool_t, ptr %45, i32 0, i32 3
  %47 = load ptr, ptr %46, align 8, !tbaa !39
  call void @opj_mutex_lock(ptr noundef %47)
  %48 = load ptr, ptr %5, align 8, !tbaa !32
  %49 = getelementptr inbounds nuw %struct.opj_thread_pool_t, ptr %48, i32 0, i32 1
  %50 = load i32, ptr %49, align 8, !tbaa !42
  %51 = mul nsw i32 100, %50
  %52 = load ptr, ptr %5, align 8, !tbaa !32
  %53 = getelementptr inbounds nuw %struct.opj_thread_pool_t, ptr %52, i32 0, i32 10
  store i32 %51, ptr %53, align 8, !tbaa !64
  br label %54

54:                                               ; preds = %62, %41
  %55 = load ptr, ptr %5, align 8, !tbaa !32
  %56 = getelementptr inbounds nuw %struct.opj_thread_pool_t, ptr %55, i32 0, i32 6
  %57 = load volatile i32, ptr %56, align 8, !tbaa !65
  %58 = load ptr, ptr %5, align 8, !tbaa !32
  %59 = getelementptr inbounds nuw %struct.opj_thread_pool_t, ptr %58, i32 0, i32 10
  %60 = load i32, ptr %59, align 8, !tbaa !64
  %61 = icmp sgt i32 %57, %60
  br i1 %61, label %62, label %69

62:                                               ; preds = %54
  %63 = load ptr, ptr %5, align 8, !tbaa !32
  %64 = getelementptr inbounds nuw %struct.opj_thread_pool_t, ptr %63, i32 0, i32 2
  %65 = load ptr, ptr %64, align 8, !tbaa !40
  %66 = load ptr, ptr %5, align 8, !tbaa !32
  %67 = getelementptr inbounds nuw %struct.opj_thread_pool_t, ptr %66, i32 0, i32 3
  %68 = load ptr, ptr %67, align 8, !tbaa !39
  call void @opj_cond_wait(ptr noundef %65, ptr noundef %68)
  br label %54, !llvm.loop !66

69:                                               ; preds = %54
  %70 = load ptr, ptr %5, align 8, !tbaa !32
  %71 = getelementptr inbounds nuw %struct.opj_thread_pool_t, ptr %70, i32 0, i32 5
  %72 = load ptr, ptr %71, align 8, !tbaa !67
  %73 = load ptr, ptr %9, align 8, !tbaa !61
  %74 = getelementptr inbounds nuw %struct.opj_job_list_t, ptr %73, i32 0, i32 1
  store ptr %72, ptr %74, align 8, !tbaa !68
  %75 = load ptr, ptr %9, align 8, !tbaa !61
  %76 = load ptr, ptr %5, align 8, !tbaa !32
  %77 = getelementptr inbounds nuw %struct.opj_thread_pool_t, ptr %76, i32 0, i32 5
  store ptr %75, ptr %77, align 8, !tbaa !67
  %78 = load ptr, ptr %5, align 8, !tbaa !32
  %79 = getelementptr inbounds nuw %struct.opj_thread_pool_t, ptr %78, i32 0, i32 6
  %80 = load volatile i32, ptr %79, align 8, !tbaa !65
  %81 = add nsw i32 %80, 1
  store volatile i32 %81, ptr %79, align 8, !tbaa !65
  %82 = load ptr, ptr %5, align 8, !tbaa !32
  %83 = getelementptr inbounds nuw %struct.opj_thread_pool_t, ptr %82, i32 0, i32 7
  %84 = load ptr, ptr %83, align 8, !tbaa !53
  %85 = icmp ne ptr %84, null
  br i1 %85, label %86, label %122

86:                                               ; preds = %69
  call void @llvm.lifetime.start.p0(i64 8, ptr %11) #4
  call void @llvm.lifetime.start.p0(i64 8, ptr %12) #4
  call void @llvm.lifetime.start.p0(i64 8, ptr %13) #4
  %87 = load ptr, ptr %5, align 8, !tbaa !32
  %88 = getelementptr inbounds nuw %struct.opj_thread_pool_t, ptr %87, i32 0, i32 7
  %89 = load ptr, ptr %88, align 8, !tbaa !53
  %90 = getelementptr inbounds nuw %struct.opj_worker_thread_list_t, ptr %89, i32 0, i32 0
  %91 = load ptr, ptr %90, align 8, !tbaa !69
  store ptr %91, ptr %11, align 8, !tbaa !12
  %92 = load ptr, ptr %11, align 8, !tbaa !12
  %93 = getelementptr inbounds nuw %struct.opj_worker_thread_t, ptr %92, i32 0, i32 2
  store i32 0, ptr %93, align 8, !tbaa !47
  %94 = load ptr, ptr %5, align 8, !tbaa !32
  %95 = getelementptr inbounds nuw %struct.opj_thread_pool_t, ptr %94, i32 0, i32 7
  %96 = load ptr, ptr %95, align 8, !tbaa !53
  %97 = getelementptr inbounds nuw %struct.opj_worker_thread_list_t, ptr %96, i32 0, i32 1
  %98 = load ptr, ptr %97, align 8, !tbaa !54
  store ptr %98, ptr %12, align 8, !tbaa !56
  %99 = load ptr, ptr %5, align 8, !tbaa !32
  %100 = getelementptr inbounds nuw %struct.opj_thread_pool_t, ptr %99, i32 0, i32 7
  %101 = load ptr, ptr %100, align 8, !tbaa !53
  store ptr %101, ptr %13, align 8, !tbaa !56
  %102 = load ptr, ptr %12, align 8, !tbaa !56
  %103 = load ptr, ptr %5, align 8, !tbaa !32
  %104 = getelementptr inbounds nuw %struct.opj_thread_pool_t, ptr %103, i32 0, i32 7
  store ptr %102, ptr %104, align 8, !tbaa !53
  %105 = load ptr, ptr %5, align 8, !tbaa !32
  %106 = getelementptr inbounds nuw %struct.opj_thread_pool_t, ptr %105, i32 0, i32 8
  %107 = load i32, ptr %106, align 8, !tbaa !50
  %108 = add nsw i32 %107, -1
  store i32 %108, ptr %106, align 8, !tbaa !50
  %109 = load ptr, ptr %11, align 8, !tbaa !12
  %110 = getelementptr inbounds nuw %struct.opj_worker_thread_t, ptr %109, i32 0, i32 3
  %111 = load ptr, ptr %110, align 8, !tbaa !45
  call void @opj_mutex_lock(ptr noundef %111)
  %112 = load ptr, ptr %5, align 8, !tbaa !32
  %113 = getelementptr inbounds nuw %struct.opj_thread_pool_t, ptr %112, i32 0, i32 3
  %114 = load ptr, ptr %113, align 8, !tbaa !39
  call void @opj_mutex_unlock(ptr noundef %114)
  %115 = load ptr, ptr %11, align 8, !tbaa !12
  %116 = getelementptr inbounds nuw %struct.opj_worker_thread_t, ptr %115, i32 0, i32 4
  %117 = load ptr, ptr %116, align 8, !tbaa !46
  call void @opj_cond_signal(ptr noundef %117)
  %118 = load ptr, ptr %11, align 8, !tbaa !12
  %119 = getelementptr inbounds nuw %struct.opj_worker_thread_t, ptr %118, i32 0, i32 3
  %120 = load ptr, ptr %119, align 8, !tbaa !45
  call void @opj_mutex_unlock(ptr noundef %120)
  %121 = load ptr, ptr %13, align 8, !tbaa !56
  call void @opj_free(ptr noundef %121)
  call void @llvm.lifetime.end.p0(i64 8, ptr %13) #4
  call void @llvm.lifetime.end.p0(i64 8, ptr %12) #4
  call void @llvm.lifetime.end.p0(i64 8, ptr %11) #4
  br label %126

122:                                              ; preds = %69
  %123 = load ptr, ptr %5, align 8, !tbaa !32
  %124 = getelementptr inbounds nuw %struct.opj_thread_pool_t, ptr %123, i32 0, i32 3
  %125 = load ptr, ptr %124, align 8, !tbaa !39
  call void @opj_mutex_unlock(ptr noundef %125)
  br label %126

126:                                              ; preds = %122, %86
  store i32 1, ptr %4, align 4
  store i32 1, ptr %10, align 4
  br label %127

127:                                              ; preds = %126, %39, %28, %18
  call void @llvm.lifetime.end.p0(i64 8, ptr %9) #4
  call void @llvm.lifetime.end.p0(i64 8, ptr %8) #4
  %128 = load i32, ptr %4, align 4
  ret i32 %128
}