; Function Attrs: nounwind uwtable
define hidden range(i32 0, 2) i32 @opj_thread_pool_submit_job(ptr noundef %0, ptr noundef %1, ptr noundef %2) local_unnamed_addr #1 {
  %4 = getelementptr inbounds nuw i8, ptr %0, i64 24
  %5 = load ptr, ptr %4, align 8, !tbaa !30
  %6 = icmp eq ptr %5, null
  br i1 %6, label %7, label %10

7:                                                ; preds = %3
  %8 = getelementptr inbounds nuw i8, ptr %0, i64 72
  %9 = load ptr, ptr %8, align 8, !tbaa !29
  tail call void %1(ptr noundef %2, ptr noundef %9) #8
  br label %64

10:                                               ; preds = %3
  %11 = tail call ptr @opj_malloc(i64 noundef 16) #8
  %12 = icmp eq ptr %11, null
  br i1 %12, label %64, label %13

13:                                               ; preds = %10
  store ptr %1, ptr %11, align 8, !tbaa !54
  %14 = getelementptr inbounds nuw i8, ptr %11, i64 8
  store ptr %2, ptr %14, align 8, !tbaa !56
  %15 = tail call ptr @opj_malloc(i64 noundef 16) #8
  %16 = icmp eq ptr %15, null
  br i1 %16, label %17, label %18

17:                                               ; preds = %13
  tail call void @opj_free(ptr noundef nonnull %11) #8
  br label %64

18:                                               ; preds = %13
  store ptr %11, ptr %15, align 8, !tbaa !57
  %19 = load ptr, ptr %4, align 8, !tbaa !30
  %20 = tail call i32 @pthread_mutex_lock(ptr noundef %19) #8
  %21 = getelementptr inbounds nuw i8, ptr %0, i64 8
  %22 = load i32, ptr %21, align 8, !tbaa !33
  %23 = mul nsw i32 %22, 100
  %24 = getelementptr inbounds nuw i8, ptr %0, i64 80
  store i32 %23, ptr %24, align 8, !tbaa !45
  %25 = getelementptr inbounds nuw i8, ptr %0, i64 48
  %26 = load volatile i32, ptr %25, align 8, !tbaa !46
  %27 = icmp sgt i32 %26, %23
  br i1 %27, label %.lr.ph, label %._crit_edge

.lr.ph:                                           ; preds = %18
  %28 = getelementptr inbounds nuw i8, ptr %0, i64 16
  br label %29

29:                                               ; preds = %.lr.ph, %29
  %30 = load ptr, ptr %28, align 8, !tbaa !31
  %31 = load ptr, ptr %4, align 8, !tbaa !30
  %32 = tail call i32 @pthread_cond_wait(ptr noundef %30, ptr noundef %31) #8
  %33 = load volatile i32, ptr %25, align 8, !tbaa !46
  %34 = load i32, ptr %24, align 8, !tbaa !45
  %35 = icmp sgt i32 %33, %34
  br i1 %35, label %29, label %._crit_edge, !llvm.loop !59

._crit_edge:                                      ; preds = %29, %18
  %36 = getelementptr inbounds nuw i8, ptr %0, i64 40
  %37 = load ptr, ptr %36, align 8, !tbaa !60
  %38 = getelementptr inbounds nuw i8, ptr %15, i64 8
  store ptr %37, ptr %38, align 8, !tbaa !61
  store ptr %15, ptr %36, align 8, !tbaa !60
  %39 = load volatile i32, ptr %25, align 8, !tbaa !46
  %40 = add nsw i32 %39, 1
  store volatile i32 %40, ptr %25, align 8, !tbaa !46
  %41 = getelementptr inbounds nuw i8, ptr %0, i64 56
  %42 = load ptr, ptr %41, align 8, !tbaa !49
  %.not = icmp eq ptr %42, null
  br i1 %.not, label %61, label %43

43:                                               ; preds = %._crit_edge
  %44 = load ptr, ptr %42, align 8, !tbaa !62
  %45 = getelementptr inbounds nuw i8, ptr %44, i64 16
  store i32 0, ptr %45, align 8, !tbaa !40
  %46 = getelementptr inbounds nuw i8, ptr %42, i64 8
  %47 = load ptr, ptr %46, align 8, !tbaa !50
  store ptr %47, ptr %41, align 8, !tbaa !49
  %48 = getelementptr inbounds nuw i8, ptr %0, i64 64
  %49 = load i32, ptr %48, align 8, !tbaa !43
  %50 = add nsw i32 %49, -1
  store i32 %50, ptr %48, align 8, !tbaa !43
  %51 = getelementptr inbounds nuw i8, ptr %44, i64 24
  %52 = load ptr, ptr %51, align 8, !tbaa !38
  %53 = tail call i32 @pthread_mutex_lock(ptr noundef %52) #8
  %54 = load ptr, ptr %4, align 8, !tbaa !30
  %55 = tail call i32 @pthread_mutex_unlock(ptr noundef %54) #8
  %56 = getelementptr inbounds nuw i8, ptr %44, i64 32
  %57 = load ptr, ptr %56, align 8, !tbaa !39
  %58 = tail call i32 @pthread_cond_signal(ptr noundef %57) #8
  %59 = load ptr, ptr %51, align 8, !tbaa !38
  %60 = tail call i32 @pthread_mutex_unlock(ptr noundef %59) #8
  tail call void @opj_free(ptr noundef nonnull %42) #8
  br label %64

61:                                               ; preds = %._crit_edge
  %62 = load ptr, ptr %4, align 8, !tbaa !30
  %63 = tail call i32 @pthread_mutex_unlock(ptr noundef %62) #8
  br label %64

64:                                               ; preds = %43, %61, %10, %17, %7
  %.0 = phi i32 [ 1, %7 ], [ 0, %17 ], [ 0, %10 ], [ 1, %61 ], [ 1, %43 ]
  ret i32 %.0
}